target datalayout = "e-m:e-p270:32:32-p271:32:32-p272:64:64-i64:64-i128:128-f80:128-n8:16:32:64-S128"
target triple = "x86_64-pc-linux-gnu"

%struct._GArray = type { ptr, i32 }

@file_type_subtype_table_arr = internal global ptr null, align 8

; Function Attrs: null_pointer_is_valid sspstrong uwtable
define ptr @wtap_get_all_file_extensions_list() #0 {
  %1 = alloca ptr, align 8
  %2 = alloca ptr, align 8
  %3 = alloca i32, align 4
  call void @llvm.lifetime.start.p0(i64 8, ptr %1) #12
  call void @llvm.lifetime.start.p0(i64 8, ptr %2) #12
  store ptr null, ptr %1, align 8
  %4 = call ptr @wtap_get_all_compression_type_extensions_list()
  store ptr %4, ptr %2, align 8
  call void @llvm.lifetime.start.p0(i64 4, ptr %3) #12
  store i32 0, ptr %3, align 4
  br label %5

5:                                                ; preds = %17, %0
  %6 = load i32, ptr %3, align 4
  %7 = load ptr, ptr @file_type_subtype_table_arr, align 8
  %8 = getelementptr inbounds nuw %struct._GArray, ptr %7, i32 0, i32 1
  %9 = load i32, ptr %8, align 8
  %10 = icmp slt i32 %6, %9
  br i1 %10, label %12, label %11

11:                                               ; preds = %5
  call void @llvm.lifetime.end.p0(i64 4, ptr %3) #12
  br label %20

12:                                               ; preds = %5
  %13 = load i32, ptr %3, align 4
  %14 = load ptr, ptr %1, align 8
  %15 = load ptr, ptr %2, align 8
  %16 = call ptr @add_extensions_for_file_type_subtype(i32 noundef %13, ptr noundef %14, ptr noundef %15)
  store ptr %16, ptr %1, align 8
  br label %17

17:                                               ; preds = %12
  %18 = load i32, ptr %3, align 4
  %19 = add i32 %18, 1
  store i32 %19, ptr %3, align 4
  br label %5, !llvm.loop !32

20:                                               ; preds = %11
  %21 = load ptr, ptr %2, align 8
  call void @g_slist_free(ptr noundef %21)
  %22 = load ptr, ptr %1, align 8
  call void @llvm.lifetime.end.p0(i64 8, ptr %2) #12
  call void @llvm.lifetime.end.p0(i64 8, ptr %1) #12
  ret ptr %22
}