; Function Attrs: null_pointer_is_valid sspstrong uwtable
define ptr @wtap_get_all_file_extensions_list() local_unnamed_addr #0 {
  %1 = tail call ptr @wtap_get_all_compression_type_extensions_list()
  %2 = load ptr, ptr @file_type_subtype_table_arr, align 8
  %3 = getelementptr inbounds nuw i8, ptr %2, i64 8
  %4 = load i32, ptr %3, align 8
  %5 = icmp sgt i32 %4, 0
  br i1 %5, label %.lr.ph, label %._crit_edge

._crit_edge:                                      ; preds = %.lr.ph, %0
  %.06.lcssa = phi ptr [ null, %0 ], [ %6, %.lr.ph ]
  tail call void @g_slist_free(ptr noundef %1)
  ret ptr %.06.lcssa

.lr.ph:                                           ; preds = %0, %.lr.ph
  %.08 = phi i32 [ %7, %.lr.ph ], [ 0, %0 ]
  %.067 = phi ptr [ %6, %.lr.ph ], [ null, %0 ]
  %6 = tail call fastcc ptr @add_extensions_for_file_type_subtype(i32 noundef %.08, ptr noundef %.067, ptr noundef %1)
  %7 = add nuw nsw i32 %.08, 1
  %8 = load ptr, ptr @file_type_subtype_table_arr, align 8
  %9 = getelementptr inbounds nuw i8, ptr %8, i64 8
  %10 = load i32, ptr %9, align 8
  %11 = icmp slt i32 %7, %10
  br i1 %11, label %.lr.ph, label %._crit_edge, !llvm.loop !37
}